target datalayout = "e-m:e-p270:32:32-p271:32:32-p272:64:64-i64:64-i128:128-f80:128-n8:16:32:64-S128"
target triple = "x86_64-pc-linux-gnu"

%"class.bParse::b3BulletFile" = type { %"class.bParse::bFile.base", ptr, %class.b3AlignedObjectArray.0, %class.b3AlignedObjectArray.0, %class.b3AlignedObjectArray.0, %class.b3AlignedObjectArray.0, %class.b3AlignedObjectArray.0, %class.b3AlignedObjectArray.0, %class.b3AlignedObjectArray.0, %class.b3AlignedObjectArray.0, %class.b3AlignedObjectArray.4 }
%"class.bParse::bFile.base" = type <{ ptr, [7 x i8], i8, ptr, i32, i32, %class.b3HashMap, i32, [4 x i8], ptr, ptr, %class.b3AlignedObjectArray.4, %class.b3AlignedObjectArray.4, %class.b3AlignedObjectArray.6, %class.b3HashMap.8, %class.b3HashMap, i32 }>
%class.b3AlignedObjectArray.6 = type <{ [4 x i8], i32, i32, [4 x i8], ptr, i8, [7 x i8] }>
%class.b3HashMap.8 = type { %class.b3AlignedObjectArray, %class.b3AlignedObjectArray, %class.b3AlignedObjectArray.6, %class.b3AlignedObjectArray.2 }
%class.b3AlignedObjectArray = type <{ [4 x i8], i32, i32, [4 x i8], ptr, i8, [7 x i8] }>
%class.b3AlignedObjectArray.2 = type <{ [4 x i8], i32, i32, [4 x i8], ptr, i8, [7 x i8] }>
%class.b3HashMap = type { %class.b3AlignedObjectArray, %class.b3AlignedObjectArray, %class.b3AlignedObjectArray.0, %class.b3AlignedObjectArray.2 }
%class.b3AlignedObjectArray.0 = type <{ [4 x i8], i32, i32, [4 x i8], ptr, i8, [7 x i8] }>
%class.b3AlignedObjectArray.4 = type <{ [4 x i8], i32, i32, [4 x i8], ptr, i8, [7 x i8] }>
%"class.bParse::bFile" = type <{ ptr, [7 x i8], i8, ptr, i32, i32, %class.b3HashMap, i32, [4 x i8], ptr, ptr, %class.b3AlignedObjectArray.4, %class.b3AlignedObjectArray.4, %class.b3AlignedObjectArray.6, %class.b3HashMap.8, %class.b3HashMap, i32, [4 x i8] }>

@.str = private unnamed_addr constant [1 x i8] zeroinitializer, align 1
@.str.1 = private unnamed_addr constant [8 x i8] c"BULLET \00", align 1
@b3s_bulletDNAlen64 = external global i32, align 4
@b3s_bulletDNAstr64 = external global [0 x i8], align 1

; Function Attrs: inlinehint mustprogress nounwind uwtable
define linkonce_odr dso_local void @_ZN20b3AlignedObjectArrayIPcE4initEv(ptr noundef nonnull align 8 dereferenceable(25) %0) #8 comdat align 2 {
  %2 = alloca ptr, align 8
  store ptr %0, ptr %2, align 8, !tbaa !39
  %3 = load ptr, ptr %2, align 8
  %4 = getelementptr inbounds nuw %class.b3AlignedObjectArray.4, ptr %3, i32 0, i32 5
  store i8 1, ptr %4, align 8, !tbaa !85
  %5 = getelementptr inbounds nuw %class.b3AlignedObjectArray.4, ptr %3, i32 0, i32 4
  store ptr null, ptr %5, align 8, !tbaa !45
  %6 = getelementptr inbounds nuw %class.b3AlignedObjectArray.4, ptr %3, i32 0, i32 1
  store i32 0, ptr %6, align 4, !tbaa !44
  %7 = getelementptr inbounds nuw %class.b3AlignedObjectArray.4, ptr %3, i32 0, i32 2
  store i32 0, ptr %7, align 8, !tbaa !84
  ret void
}

; Function Attrs: mustprogress nounwind uwtable
define linkonce_odr dso_local void @_ZN18b3AlignedAllocatorIPcLj16EEC2Ev(ptr noundef nonnull align 1 dereferenceable(1) %0) unnamed_addr #5 comdat align 2 {
  %2 = alloca ptr, align 8
  store ptr %0, ptr %2, align 8, !tbaa !88
  ret void
}

; Function Attrs: inlinehint mustprogress nounwind uwtable
define linkonce_odr dso_local void @_ZN20b3AlignedObjectArrayIPN6bParse13bStructHandleEE4initEv(ptr noundef nonnull align 8 dereferenceable(25) %0) #8 comdat align 2 {
  %2 = alloca ptr, align 8
  store ptr %0, ptr %2, align 8, !tbaa !37
  %3 = load ptr, ptr %2, align 8
  %4 = getelementptr inbounds nuw %class.b3AlignedObjectArray.0, ptr %3, i32 0, i32 5
  store i8 1, ptr %4, align 8, !tbaa !94
  %5 = getelementptr inbounds nuw %class.b3AlignedObjectArray.0, ptr %3, i32 0, i32 4
  store ptr null, ptr %5, align 8, !tbaa !73
  %6 = getelementptr inbounds nuw %class.b3AlignedObjectArray.0, ptr %3, i32 0, i32 1
  store i32 0, ptr %6, align 4, !tbaa !74
  %7 = getelementptr inbounds nuw %class.b3AlignedObjectArray.0, ptr %3, i32 0, i32 2
  store i32 0, ptr %7, align 8, !tbaa !95
  ret void
}

; Function Attrs: mustprogress nounwind uwtable
define linkonce_odr dso_local void @_ZN18b3AlignedAllocatorIPN6bParse13bStructHandleELj16EEC2Ev(ptr noundef nonnull align 1 dereferenceable(1) %0) unnamed_addr #5 comdat align 2 {
  %2 = alloca ptr, align 8
  store ptr %0, ptr %2, align 8, !tbaa !92
  ret void
}

; Function Attrs: mustprogress uwtable
define linkonce_odr dso_local void @_ZN20b3AlignedObjectArrayIPcEC2Ev(ptr noundef nonnull align 8 dereferenceable(25) %0) unnamed_addr #0 comdat align 2 {
  %2 = alloca ptr, align 8
  store ptr %0, ptr %2, align 8, !tbaa !39
  %3 = load ptr, ptr %2, align 8
  call void @_ZN18b3AlignedAllocatorIPcLj16EEC2Ev(ptr noundef nonnull align 1 dereferenceable(1) %3)
  call void @_ZN20b3AlignedObjectArrayIPcE4initEv(ptr noundef nonnull align 8 dereferenceable(25) %3)
  ret void
}

; Function Attrs: mustprogress uwtable
define linkonce_odr dso_local void @_ZN20b3AlignedObjectArrayIPN6bParse13bStructHandleEEC2Ev(ptr noundef nonnull align 8 dereferenceable(25) %0) unnamed_addr #0 comdat align 2 {
  %2 = alloca ptr, align 8
  store ptr %0, ptr %2, align 8, !tbaa !37
  %3 = load ptr, ptr %2, align 8
  call void @_ZN18b3AlignedAllocatorIPN6bParse13bStructHandleELj16EEC2Ev(ptr noundef nonnull align 1 dereferenceable(1) %3)
  call void @_ZN20b3AlignedObjectArrayIPN6bParse13bStructHandleEE4initEv(ptr noundef nonnull align 8 dereferenceable(25) %3)
  ret void
}

; Function Attrs: mustprogress uwtable
define dso_local void @_ZN6bParse12b3BulletFileC2Ev(ptr noundef nonnull align 8 dereferenceable(840) %0) unnamed_addr #0 align 2 personality ptr @__gxx_personality_v0 {
  %2 = alloca ptr, align 8
  %3 = alloca ptr, align 8
  %4 = alloca i32, align 4
  store ptr %0, ptr %2, align 8, !tbaa !4
  %5 = load ptr, ptr %2, align 8
  call void @_ZN6bParse5bFileC2EPKcS2_(ptr noundef nonnull align 8 dereferenceable(540) %5, ptr noundef @.str, ptr noundef @.str.1)
  store ptr getelementptr inbounds inrange(-16, 72) ({ [11 x ptr] }, ptr @_ZTVN6bParse12b3BulletFileE, i32 0, i32 0, i32 2), ptr %5, align 8, !tbaa !9
  %6 = getelementptr inbounds nuw %"class.bParse::b3BulletFile", ptr %5, i32 0, i32 2
  invoke void @_ZN20b3AlignedObjectArrayIPN6bParse13bStructHandleEEC2Ev(ptr noundef nonnull align 8 dereferenceable(25) %6)
          to label %7 unwind label %44

7:                                                ; preds = %1
  %8 = getelementptr inbounds nuw %"class.bParse::b3BulletFile", ptr %5, i32 0, i32 3
  invoke void @_ZN20b3AlignedObjectArrayIPN6bParse13bStructHandleEEC2Ev(ptr noundef nonnull align 8 dereferenceable(25) %8)
          to label %9 unwind label %48

9:                                                ; preds = %7
  %10 = getelementptr inbounds nuw %"class.bParse::b3BulletFile", ptr %5, i32 0, i32 4
  invoke void @_ZN20b3AlignedObjectArrayIPN6bParse13bStructHandleEEC2Ev(ptr noundef nonnull align 8 dereferenceable(25) %10)
          to label %11 unwind label %52

11:                                               ; preds = %9
  %12 = getelementptr inbounds nuw %"class.bParse::b3BulletFile", ptr %5, i32 0, i32 5
  invoke void @_ZN20b3AlignedObjectArrayIPN6bParse13bStructHandleEEC2Ev(ptr noundef nonnull align 8 dereferenceable(25) %12)
          to label %13 unwind label %56

13:                                               ; preds = %11
  %14 = getelementptr inbounds nuw %"class.bParse::b3BulletFile", ptr %5, i32 0, i32 6
  invoke void @_ZN20b3AlignedObjectArrayIPN6bParse13bStructHandleEEC2Ev(ptr noundef nonnull align 8 dereferenceable(25) %14)
          to label %15 unwind label %60

15:                                               ; preds = %13
  %16 = getelementptr inbounds nuw %"class.bParse::b3BulletFile", ptr %5, i32 0, i32 7
  invoke void @_ZN20b3AlignedObjectArrayIPN6bParse13bStructHandleEEC2Ev(ptr noundef nonnull align 8 dereferenceable(25) %16)
          to label %17 unwind label %64

17:                                               ; preds = %15
  %18 = getelementptr inbounds nuw %"class.bParse::b3BulletFile", ptr %5, i32 0, i32 8
  invoke void @_ZN20b3AlignedObjectArrayIPN6bParse13bStructHandleEEC2Ev(ptr noundef nonnull align 8 dereferenceable(25) %18)
          to label %19 unwind label %68

19:                                               ; preds = %17
  %20 = getelementptr inbounds nuw %"class.bParse::b3BulletFile", ptr %5, i32 0, i32 9
  invoke void @_ZN20b3AlignedObjectArrayIPN6bParse13bStructHandleEEC2Ev(ptr noundef nonnull align 8 dereferenceable(25) %20)
          to label %21 unwind label %72

21:                                               ; preds = %19
  %22 = getelementptr inbounds nuw %"class.bParse::b3BulletFile", ptr %5, i32 0, i32 10
  invoke void @_ZN20b3AlignedObjectArrayIPcEC2Ev(ptr noundef nonnull align 8 dereferenceable(25) %22)
          to label %23 unwind label %76

23:                                               ; preds = %21
  %24 = invoke noalias noundef nonnull ptr @_Znwm(i64 noundef 424) #11
          to label %25 unwind label %80

25:                                               ; preds = %23
  invoke void @_ZN6bParse4bDNAC1Ev(ptr noundef nonnull align 8 dereferenceable(420) %24)
          to label %26 unwind label %84

26:                                               ; preds = %25
  %27 = getelementptr inbounds nuw %"class.bParse::bFile", ptr %5, i32 0, i32 10
  store ptr %24, ptr %27, align 8, !tbaa !11
  %28 = getelementptr inbounds nuw %"class.bParse::b3BulletFile", ptr %5, i32 0, i32 1
  store ptr null, ptr %28, align 8, !tbaa !34
  %29 = load i32, ptr @b3s_bulletDNAlen64, align 4, !tbaa !36
  %30 = sext i32 %29 to i64
  %31 = invoke noundef ptr @_Z22b3AlignedAllocInternalmi(i64 noundef %30, i32 noundef 16)
          to label %32 unwind label %80

32:                                               ; preds = %26
  %33 = getelementptr inbounds nuw %"class.bParse::b3BulletFile", ptr %5, i32 0, i32 1
  store ptr %31, ptr %33, align 8, !tbaa !34
  %34 = getelementptr inbounds nuw %"class.bParse::b3BulletFile", ptr %5, i32 0, i32 1
  %35 = load ptr, ptr %34, align 8, !tbaa !34
  %36 = load i32, ptr @b3s_bulletDNAlen64, align 4, !tbaa !36
  %37 = sext i32 %36 to i64
  call void @llvm.memcpy.p0.p0.i64(ptr align 1 %35, ptr align 1 @b3s_bulletDNAstr64, i64 %37, i1 false)
  %38 = getelementptr inbounds nuw %"class.bParse::bFile", ptr %5, i32 0, i32 10
  %39 = load ptr, ptr %38, align 8, !tbaa !11
  %40 = getelementptr inbounds nuw %"class.bParse::b3BulletFile", ptr %5, i32 0, i32 1
  %41 = load ptr, ptr %40, align 8, !tbaa !34
  %42 = load i32, ptr @b3s_bulletDNAlen64, align 4, !tbaa !36
  invoke void @_ZN6bParse4bDNA4initEPcib(ptr noundef nonnull align 8 dereferenceable(420) %39, ptr noundef %41, i32 noundef %42, i1 noundef zeroext false)
          to label %43 unwind label %80

43:                                               ; preds = %32
  ret void

44:                                               ; preds = %1
  %45 = landingpad { ptr, i32 }
          cleanup
  %46 = extractvalue { ptr, i32 } %45, 0
  store ptr %46, ptr %3, align 8
  %47 = extractvalue { ptr, i32 } %45, 1
  store i32 %47, ptr %4, align 4
  br label %97

48:                                               ; preds = %7
  %49 = landingpad { ptr, i32 }
          cleanup
  %50 = extractvalue { ptr, i32 } %49, 0
  store ptr %50, ptr %3, align 8
  %51 = extractvalue { ptr, i32 } %49, 1
  store i32 %51, ptr %4, align 4
  br label %96

52:                                               ; preds = %9
  %53 = landingpad { ptr, i32 }
          cleanup
  %54 = extractvalue { ptr, i32 } %53, 0
  store ptr %54, ptr %3, align 8
  %55 = extractvalue { ptr, i32 } %53, 1
  store i32 %55, ptr %4, align 4
  br label %95

56:                                               ; preds = %11
  %57 = landingpad { ptr, i32 }
          cleanup
  %58 = extractvalue { ptr, i32 } %57, 0
  store ptr %58, ptr %3, align 8
  %59 = extractvalue { ptr, i32 } %57, 1
  store i32 %59, ptr %4, align 4
  br label %94

60:                                               ; preds = %13
  %61 = landingpad { ptr, i32 }
          cleanup
  %62 = extractvalue { ptr, i32 } %61, 0
  store ptr %62, ptr %3, align 8
  %63 = extractvalue { ptr, i32 } %61, 1
  store i32 %63, ptr %4, align 4
  br label %93

64:                                               ; preds = %15
  %65 = landingpad { ptr, i32 }
          cleanup
  %66 = extractvalue { ptr, i32 } %65, 0
  store ptr %66, ptr %3, align 8
  %67 = extractvalue { ptr, i32 } %65, 1
  store i32 %67, ptr %4, align 4
  br label %92

68:                                               ; preds = %17
  %69 = landingpad { ptr, i32 }
          cleanup
  %70 = extractvalue { ptr, i32 } %69, 0
  store ptr %70, ptr %3, align 8
  %71 = extractvalue { ptr, i32 } %69, 1
  store i32 %71, ptr %4, align 4
  br label %91

72:                                               ; preds = %19
  %73 = landingpad { ptr, i32 }
          cleanup
  %74 = extractvalue { ptr, i32 } %73, 0
  store ptr %74, ptr %3, align 8
  %75 = extractvalue { ptr, i32 } %73, 1
  store i32 %75, ptr %4, align 4
  br label %90

76:                                               ; preds = %21
  %77 = landingpad { ptr, i32 }
          cleanup
  %78 = extractvalue { ptr, i32 } %77, 0
  store ptr %78, ptr %3, align 8
  %79 = extractvalue { ptr, i32 } %77, 1
  store i32 %79, ptr %4, align 4
  br label %89

80:                                               ; preds = %32, %26, %23
  %81 = landingpad { ptr, i32 }
          cleanup
  %82 = extractvalue { ptr, i32 } %81, 0
  store ptr %82, ptr %3, align 8
  %83 = extractvalue { ptr, i32 } %81, 1
  store i32 %83, ptr %4, align 4
  br label %88

84:                                               ; preds = %25
  %85 = landingpad { ptr, i32 }
          cleanup
  %86 = extractvalue { ptr, i32 } %85, 0
  store ptr %86, ptr %3, align 8
  %87 = extractvalue { ptr, i32 } %85, 1
  store i32 %87, ptr %4, align 4
  call void @_ZdlPvm(ptr noundef %24, i64 noundef 424) #12
  br label %88

88:                                               ; preds = %84, %80
  call void @_ZN20b3AlignedObjectArrayIPcED2Ev(ptr noundef nonnull align 8 dereferenceable(25) %22) #13
  br label %89

89:                                               ; preds = %88, %76
  call void @_ZN20b3AlignedObjectArrayIPN6bParse13bStructHandleEED2Ev(ptr noundef nonnull align 8 dereferenceable(25) %20) #13
  br label %90

90:                                               ; preds = %89, %72
  call void @_ZN20b3AlignedObjectArrayIPN6bParse13bStructHandleEED2Ev(ptr noundef nonnull align 8 dereferenceable(25) %18) #13
  br label %91

91:                                               ; preds = %90, %68
  call void @_ZN20b3AlignedObjectArrayIPN6bParse13bStructHandleEED2Ev(ptr noundef nonnull align 8 dereferenceable(25) %16) #13
  br label %92

92:                                               ; preds = %91, %64
  call void @_ZN20b3AlignedObjectArrayIPN6bParse13bStructHandleEED2Ev(ptr noundef nonnull align 8 dereferenceable(25) %14) #13
  br label %93

93:                                               ; preds = %92, %60
  call void @_ZN20b3AlignedObjectArrayIPN6bParse13bStructHandleEED2Ev(ptr noundef nonnull align 8 dereferenceable(25) %12) #13
  br label %94

94:                                               ; preds = %93, %56
  call void @_ZN20b3AlignedObjectArrayIPN6bParse13bStructHandleEED2Ev(ptr noundef nonnull align 8 dereferenceable(25) %10) #13
  br label %95

95:                                               ; preds = %94, %52
  call void @_ZN20b3AlignedObjectArrayIPN6bParse13bStructHandleEED2Ev(ptr noundef nonnull align 8 dereferenceable(25) %8) #13
  br label %96

96:                                               ; preds = %95, %48
  call void @_ZN20b3AlignedObjectArrayIPN6bParse13bStructHandleEED2Ev(ptr noundef nonnull align 8 dereferenceable(25) %6) #13
  br label %97

97:                                               ; preds = %96, %44
  call void @_ZN6bParse5bFileD2Ev(ptr noundef nonnull align 8 dereferenceable(540) %5) #13
  br label %98

98:                                               ; preds = %97
  %99 = load ptr, ptr %3, align 8
  %100 = load i32, ptr %4, align 4
  %101 = insertvalue { ptr, i32 } poison, ptr %99, 0
  %102 = insertvalue { ptr, i32 } %101, i32 %100, 1
  resume { ptr, i32 } %102
}