; Function Attrs: mustprogress uwtable
define dso_local void @_ZN6bParse12b3BulletFileC2Ev(ptr noundef nonnull align 8 dereferenceable(840) %0) unnamed_addr #0 align 2 personality ptr @__gxx_personality_v0 {
  tail call void @_ZN6bParse5bFileC2EPKcS2_(ptr noundef nonnull align 8 dereferenceable(540) %0, ptr noundef nonnull @.str, ptr noundef nonnull @.str.1)
  store ptr getelementptr inbounds nuw inrange(-16, 72) (i8, ptr @_ZTVN6bParse12b3BulletFileE, i64 16), ptr %0, align 8, !tbaa !4
  %2 = getelementptr inbounds nuw i8, ptr %0, i64 576
  store i8 1, ptr %2, align 8, !tbaa !7
  %3 = getelementptr inbounds nuw i8, ptr %0, i64 568
  store ptr null, ptr %3, align 8, !tbaa !15
  %4 = getelementptr inbounds nuw i8, ptr %0, i64 556
  store i32 0, ptr %4, align 4, !tbaa !16
  %5 = getelementptr inbounds nuw i8, ptr %0, i64 560
  store i32 0, ptr %5, align 8, !tbaa !17
  %6 = getelementptr inbounds nuw i8, ptr %0, i64 608
  store i8 1, ptr %6, align 8, !tbaa !7
  %7 = getelementptr inbounds nuw i8, ptr %0, i64 600
  store ptr null, ptr %7, align 8, !tbaa !15
  %8 = getelementptr inbounds nuw i8, ptr %0, i64 588
  store i32 0, ptr %8, align 4, !tbaa !16
  %9 = getelementptr inbounds nuw i8, ptr %0, i64 592
  store i32 0, ptr %9, align 8, !tbaa !17
  %10 = getelementptr inbounds nuw i8, ptr %0, i64 640
  store i8 1, ptr %10, align 8, !tbaa !7
  %11 = getelementptr inbounds nuw i8, ptr %0, i64 632
  store ptr null, ptr %11, align 8, !tbaa !15
  %12 = getelementptr inbounds nuw i8, ptr %0, i64 620
  store i32 0, ptr %12, align 4, !tbaa !16
  %13 = getelementptr inbounds nuw i8, ptr %0, i64 624
  store i32 0, ptr %13, align 8, !tbaa !17
  %14 = getelementptr inbounds nuw i8, ptr %0, i64 672
  store i8 1, ptr %14, align 8, !tbaa !7
  %15 = getelementptr inbounds nuw i8, ptr %0, i64 664
  store ptr null, ptr %15, align 8, !tbaa !15
  %16 = getelementptr inbounds nuw i8, ptr %0, i64 652
  store i32 0, ptr %16, align 4, !tbaa !16
  %17 = getelementptr inbounds nuw i8, ptr %0, i64 656
  store i32 0, ptr %17, align 8, !tbaa !17
  %18 = getelementptr inbounds nuw i8, ptr %0, i64 704
  store i8 1, ptr %18, align 8, !tbaa !7
  %19 = getelementptr inbounds nuw i8, ptr %0, i64 696
  store ptr null, ptr %19, align 8, !tbaa !15
  %20 = getelementptr inbounds nuw i8, ptr %0, i64 684
  store i32 0, ptr %20, align 4, !tbaa !16
  %21 = getelementptr inbounds nuw i8, ptr %0, i64 688
  store i32 0, ptr %21, align 8, !tbaa !17
  %22 = getelementptr inbounds nuw i8, ptr %0, i64 736
  store i8 1, ptr %22, align 8, !tbaa !7
  %23 = getelementptr inbounds nuw i8, ptr %0, i64 728
  store ptr null, ptr %23, align 8, !tbaa !15
  %24 = getelementptr inbounds nuw i8, ptr %0, i64 716
  store i32 0, ptr %24, align 4, !tbaa !16
  %25 = getelementptr inbounds nuw i8, ptr %0, i64 720
  store i32 0, ptr %25, align 8, !tbaa !17
  %26 = getelementptr inbounds nuw i8, ptr %0, i64 768
  store i8 1, ptr %26, align 8, !tbaa !7
  %27 = getelementptr inbounds nuw i8, ptr %0, i64 760
  store ptr null, ptr %27, align 8, !tbaa !15
  %28 = getelementptr inbounds nuw i8, ptr %0, i64 748
  store i32 0, ptr %28, align 4, !tbaa !16
  %29 = getelementptr inbounds nuw i8, ptr %0, i64 752
  store i32 0, ptr %29, align 8, !tbaa !17
  %30 = getelementptr inbounds nuw i8, ptr %0, i64 800
  store i8 1, ptr %30, align 8, !tbaa !7
  %31 = getelementptr inbounds nuw i8, ptr %0, i64 792
  store ptr null, ptr %31, align 8, !tbaa !15
  %32 = getelementptr inbounds nuw i8, ptr %0, i64 780
  store i32 0, ptr %32, align 4, !tbaa !16
  %33 = getelementptr inbounds nuw i8, ptr %0, i64 784
  store i32 0, ptr %33, align 8, !tbaa !17
  %34 = getelementptr inbounds nuw i8, ptr %0, i64 832
  store i8 1, ptr %34, align 8, !tbaa !18
  %35 = getelementptr inbounds nuw i8, ptr %0, i64 824
  store ptr null, ptr %35, align 8, !tbaa !22
  %36 = getelementptr inbounds nuw i8, ptr %0, i64 812
  store i32 0, ptr %36, align 4, !tbaa !23
  %37 = getelementptr inbounds nuw i8, ptr %0, i64 816
  store i32 0, ptr %37, align 8, !tbaa !24
  %38 = invoke noalias noundef nonnull dereferenceable(424) ptr @_Znwm(i64 noundef 424) #15
          to label %39 unwind label %53

39:                                               ; preds = %1
  invoke void @_ZN6bParse4bDNAC1Ev(ptr noundef nonnull align 8 dereferenceable(420) %38)
          to label %40 unwind label %55

40:                                               ; preds = %39
  %41 = getelementptr inbounds nuw i8, ptr %0, i64 176
  store ptr %38, ptr %41, align 8, !tbaa !25
  %42 = getelementptr inbounds nuw i8, ptr %0, i64 544
  store ptr null, ptr %42, align 8, !tbaa !40
  %43 = load i32, ptr @b3s_bulletDNAlen64, align 4, !tbaa !42
  %44 = sext i32 %43 to i64
  %45 = invoke noundef ptr @_Z22b3AlignedAllocInternalmi(i64 noundef %44, i32 noundef 16)
          to label %46 unwind label %53

46:                                               ; preds = %40
  store ptr %45, ptr %42, align 8, !tbaa !40
  %47 = load i32, ptr @b3s_bulletDNAlen64, align 4, !tbaa !42
  %48 = sext i32 %47 to i64
  tail call void @llvm.memcpy.p0.p0.i64(ptr align 1 %45, ptr nonnull align 1 @b3s_bulletDNAstr64, i64 %48, i1 false)
  %49 = load ptr, ptr %41, align 8, !tbaa !25
  %50 = load ptr, ptr %42, align 8, !tbaa !40
  %51 = load i32, ptr @b3s_bulletDNAlen64, align 4, !tbaa !42
  invoke void @_ZN6bParse4bDNA4initEPcib(ptr noundef nonnull align 8 dereferenceable(420) %49, ptr noundef %50, i32 noundef %51, i1 noundef zeroext false)
          to label %52 unwind label %53

52:                                               ; preds = %46
  ret void

53:                                               ; preds = %46, %40, %1
  %54 = landingpad { ptr, i32 }
          cleanup
  br label %57

55:                                               ; preds = %39
  %56 = landingpad { ptr, i32 }
          cleanup
  tail call void @_ZdlPvm(ptr noundef nonnull %38, i64 noundef 424) #16
  br label %57

57:                                               ; preds = %55, %53
  %.pn = phi { ptr, i32 } [ %54, %53 ], [ %56, %55 ]
  %58 = getelementptr inbounds nuw i8, ptr %0, i64 808
  %59 = getelementptr inbounds nuw i8, ptr %0, i64 776
  %60 = getelementptr inbounds nuw i8, ptr %0, i64 744
  %61 = getelementptr inbounds nuw i8, ptr %0, i64 712
  %62 = getelementptr inbounds nuw i8, ptr %0, i64 680
  %63 = getelementptr inbounds nuw i8, ptr %0, i64 648
  %64 = getelementptr inbounds nuw i8, ptr %0, i64 616
  %65 = getelementptr inbounds nuw i8, ptr %0, i64 584
  %66 = getelementptr inbounds nuw i8, ptr %0, i64 552
  tail call void @_ZN20b3AlignedObjectArrayIPcED2Ev(ptr noundef nonnull align 8 dereferenceable(25) %58) #17
  tail call void @_ZN20b3AlignedObjectArrayIPN6bParse13bStructHandleEED2Ev(ptr noundef nonnull align 8 dereferenceable(25) %59) #17
  tail call void @_ZN20b3AlignedObjectArrayIPN6bParse13bStructHandleEED2Ev(ptr noundef nonnull align 8 dereferenceable(25) %60) #17
  tail call void @_ZN20b3AlignedObjectArrayIPN6bParse13bStructHandleEED2Ev(ptr noundef nonnull align 8 dereferenceable(25) %61) #17
  tail call void @_ZN20b3AlignedObjectArrayIPN6bParse13bStructHandleEED2Ev(ptr noundef nonnull align 8 dereferenceable(25) %62) #17
  tail call void @_ZN20b3AlignedObjectArrayIPN6bParse13bStructHandleEED2Ev(ptr noundef nonnull align 8 dereferenceable(25) %63) #17
  tail call void @_ZN20b3AlignedObjectArrayIPN6bParse13bStructHandleEED2Ev(ptr noundef nonnull align 8 dereferenceable(25) %64) #17
  tail call void @_ZN20b3AlignedObjectArrayIPN6bParse13bStructHandleEED2Ev(ptr noundef nonnull align 8 dereferenceable(25) %65) #17
  tail call void @_ZN20b3AlignedObjectArrayIPN6bParse13bStructHandleEED2Ev(ptr noundef nonnull align 8 dereferenceable(25) %66) #17
  tail call void @_ZN6bParse5bFileD2Ev(ptr noundef nonnull align 8 dereferenceable(540) %0) #17
  resume { ptr, i32 } %.pn
}